#include <math.h>
#include <stdio.h>
#include <stdlib.h>
#include <string.h>

int move(int a[100],int n,int m)
{
	int *p,end;
	end=*(a+n-1);
	for(p=a+n-1;p>a;p--)
	{
		*p=*(p-1);
	}
	*a=end;
	m--;
	if(m>0)
		move(a,n,m);
}
void main()
{
	int a[100],m,n,i;
	scanf("%d%d",&n,&m);
    for(i=0;i<n;i++)
	{
		scanf("%d",&a[i]);
	}
	move(a,n,m);
	for(i=0;i<n-1;i++)
	{
		printf("%d ",a[i]);
	}
         printf("%d",a[n-1]);
}

